target datalayout = "e-m:e-p270:32:32-p271:32:32-p272:64:64-i64:64-i128:128-f80:128-n8:16:32:64-S128"
target triple = "x86_64-pc-linux-gnu"

%"class.Ipopt::Ma57TSolverInterface" = type { %"class.Ipopt::SparseSymLinearSolverInterface.base", %"class.Ipopt::SmartPtr", ptr, ptr, ptr, ptr, ptr, i32, i32, i32, i8, i8, i8, double, double, double, i8, [5 x double], [20 x i32], [40 x i32], [20 x double], i32, ptr, ptr, ptr, i32, ptr, i32, ptr }
%"class.Ipopt::SparseSymLinearSolverInterface.base" = type { %"class.Ipopt::AlgorithmStrategyObject.base" }
%"class.Ipopt::AlgorithmStrategyObject.base" = type <{ %"class.Ipopt::ReferencedObject.base", [4 x i8], %"class.Ipopt::SmartPtr.0", %"class.Ipopt::SmartPtr.1", %"class.Ipopt::SmartPtr.2", %"class.Ipopt::SmartPtr.3", i8 }>
%"class.Ipopt::ReferencedObject.base" = type <{ ptr, i32 }>
%"class.Ipopt::SmartPtr.0" = type { ptr }
%"class.Ipopt::SmartPtr.1" = type { ptr }
%"class.Ipopt::SmartPtr.2" = type { ptr }
%"class.Ipopt::SmartPtr.3" = type { ptr }
%"class.Ipopt::SmartPtr" = type { ptr }

; Function Attrs: mustprogress uwtable
define noundef i32 @_ZN5Ipopt20Ma57TSolverInterface10MultiSolveEbPKiS2_iPdbi(ptr noundef nonnull align 8 dereferenceable(656) %0, i1 noundef zeroext %1, ptr noundef %2, ptr noundef %3, i32 noundef %4, ptr noundef %5, i1 noundef zeroext %6, i32 noundef %7) unnamed_addr #4 align 2 {
  %9 = alloca i32, align 4
  %10 = alloca ptr, align 8
  %11 = alloca i8, align 1
  %12 = alloca ptr, align 8
  %13 = alloca ptr, align 8
  %14 = alloca i32, align 4
  %15 = alloca ptr, align 8
  %16 = alloca i8, align 1
  %17 = alloca i32, align 4
  %18 = alloca i32, align 4
  %19 = alloca i32, align 4
  store ptr %0, ptr %10, align 8, !tbaa !3
  %20 = zext i1 %1 to i8
  store i8 %20, ptr %11, align 1, !tbaa !69
  store ptr %2, ptr %12, align 8, !tbaa !79
  store ptr %3, ptr %13, align 8, !tbaa !79
  store i32 %4, ptr %14, align 4, !tbaa !67
  store ptr %5, ptr %15, align 8, !tbaa !80
  %21 = zext i1 %6 to i8
  store i8 %21, ptr %16, align 1, !tbaa !69
  store i32 %7, ptr %17, align 4, !tbaa !67
  %22 = load ptr, ptr %10, align 8
  %23 = getelementptr inbounds nuw %"class.Ipopt::Ma57TSolverInterface", ptr %22, i32 0, i32 11
  %24 = load i8, ptr %23, align 1, !tbaa !39, !range !70, !noundef !71
  %25 = trunc i8 %24 to i1
  br i1 %25, label %26, label %33

26:                                               ; preds = %8
  %27 = getelementptr inbounds nuw %"class.Ipopt::Ma57TSolverInterface", ptr %22, i32 0, i32 11
  store i8 0, ptr %27, align 1, !tbaa !39
  %28 = load i8, ptr %11, align 1, !tbaa !69, !range !70, !noundef !71
  %29 = trunc i8 %28 to i1
  br i1 %29, label %32, label %30

30:                                               ; preds = %26
  %31 = getelementptr inbounds nuw %"class.Ipopt::Ma57TSolverInterface", ptr %22, i32 0, i32 12
  store i8 1, ptr %31, align 2, !tbaa !40
  store i32 3, ptr %9, align 4
  br label %60

32:                                               ; preds = %26
  br label %33

33:                                               ; preds = %32, %8
  %34 = load i8, ptr %11, align 1, !tbaa !69, !range !70, !noundef !71
  %35 = trunc i8 %34 to i1
  br i1 %35, label %40, label %36

36:                                               ; preds = %33
  %37 = getelementptr inbounds nuw %"class.Ipopt::Ma57TSolverInterface", ptr %22, i32 0, i32 12
  %38 = load i8, ptr %37, align 2, !tbaa !40, !range !70, !noundef !71
  %39 = trunc i8 %38 to i1
  br i1 %39, label %40, label %56

40:                                               ; preds = %36, %33
  call void @llvm.lifetime.start.p0(i64 4, ptr %18) #3
  %41 = load ptr, ptr %12, align 8, !tbaa !79
  %42 = load ptr, ptr %13, align 8, !tbaa !79
  %43 = load i8, ptr %16, align 1, !tbaa !69, !range !70, !noundef !71
  %44 = trunc i8 %43 to i1
  %45 = load i32, ptr %17, align 4, !tbaa !67
  %46 = call noundef i32 @_ZN5Ipopt20Ma57TSolverInterface13FactorizationEPKiS2_bi(ptr noundef nonnull align 8 dereferenceable(656) %22, ptr noundef %41, ptr noundef %42, i1 noundef zeroext %44, i32 noundef %45)
  store i32 %46, ptr %18, align 4, !tbaa !81
  %47 = load i32, ptr %18, align 4, !tbaa !81
  %48 = icmp ne i32 %47, 0
  br i1 %48, label %49, label %51

49:                                               ; preds = %40
  %50 = load i32, ptr %18, align 4, !tbaa !81
  store i32 %50, ptr %9, align 4
  store i32 1, ptr %19, align 4
  br label %53

51:                                               ; preds = %40
  %52 = getelementptr inbounds nuw %"class.Ipopt::Ma57TSolverInterface", ptr %22, i32 0, i32 12
  store i8 0, ptr %52, align 2, !tbaa !40
  store i32 0, ptr %19, align 4
  br label %53

53:                                               ; preds = %51, %49
  call void @llvm.lifetime.end.p0(i64 4, ptr %18) #3
  %54 = load i32, ptr %19, align 4
  switch i32 %54, label %62 [
    i32 0, label %55
    i32 1, label %60
  ]

55:                                               ; preds = %53
  br label %56

56:                                               ; preds = %55, %36
  %57 = load i32, ptr %14, align 4, !tbaa !67
  %58 = load ptr, ptr %15, align 8, !tbaa !80
  %59 = call noundef i32 @_ZN5Ipopt20Ma57TSolverInterface9BacksolveEiPd(ptr noundef nonnull align 8 dereferenceable(656) %22, i32 noundef %57, ptr noundef %58)
  store i32 %59, ptr %9, align 4
  br label %60

60:                                               ; preds = %56, %53, %30
  %61 = load i32, ptr %9, align 4
  ret i32 %61

62:                                               ; preds = %53
  unreachable
}