; Function Attrs: mustprogress uwtable
define noundef range(i32 0, 5) i32 @_ZN5Ipopt20Ma57TSolverInterface10MultiSolveEbPKiS2_iPdbi(ptr noundef nonnull align 8 dereferenceable(656) %0, i1 noundef zeroext %1, ptr noundef readnone captures(none) %2, ptr noundef readnone captures(none) %3, i32 noundef %4, ptr noundef %5, i1 noundef zeroext %6, i32 noundef %7) unnamed_addr #6 align 2 {
  %9 = getelementptr inbounds nuw i8, ptr %0, i64 117
  %10 = load i8, ptr %9, align 1, !tbaa !30, !range !64, !noundef !65
  %11 = trunc nuw i8 %10 to i1
  br i1 %11, label %12, label %15

12:                                               ; preds = %8
  store i8 0, ptr %9, align 1, !tbaa !30
  br i1 %1, label %.critedge, label %13

13:                                               ; preds = %12
  %14 = getelementptr inbounds nuw i8, ptr %0, i64 118
  store i8 1, ptr %14, align 2, !tbaa !31
  br label %24

15:                                               ; preds = %8
  br i1 %1, label %.critedge, label %16

16:                                               ; preds = %15
  %17 = getelementptr inbounds nuw i8, ptr %0, i64 118
  %18 = load i8, ptr %17, align 2, !tbaa !31, !range !64, !noundef !65
  %19 = trunc nuw i8 %18 to i1
  br i1 %19, label %.critedge, label %22

.critedge:                                        ; preds = %12, %16, %15
  %20 = tail call noundef i32 @_ZN5Ipopt20Ma57TSolverInterface13FactorizationEPKiS2_bi(ptr noundef nonnull align 8 dereferenceable(656) %0, ptr poison, ptr poison, i1 noundef zeroext %6, i32 noundef %7)
  %.not.not = icmp eq i32 %20, 0
  br i1 %.not.not, label %.thread, label %24

.thread:                                          ; preds = %.critedge
  %21 = getelementptr inbounds nuw i8, ptr %0, i64 118
  store i8 0, ptr %21, align 2, !tbaa !31
  br label %22

22:                                               ; preds = %.thread, %16
  %23 = tail call noundef i32 @_ZN5Ipopt20Ma57TSolverInterface9BacksolveEiPd(ptr noundef nonnull align 8 dereferenceable(656) %0, i32 noundef %4, ptr noundef %5)
  br label %24

24:                                               ; preds = %.critedge, %22, %13
  %.012 = phi i32 [ 0, %22 ], [ 3, %13 ], [ %20, %.critedge ]
  ret i32 %.012
}